(dp0
ccopy_reg
_reconstructor
p1
(chab_task
HabTask
p2
c__builtin__
object
p3
Ntp4
Rp5
(dp6
S'new_checklist_items'
p7
(lp8
sS'existing_checklist_items'
p9
(lp10
sS'_HabTask__task_dict'
p11
(dp12
Vattribute
p13
Vstr
p14
sVgroup
p15
(dp16
VassignedUsers
p17
(lp18
ssVcollapseChecklist
p19
I00
sVtags
p20
(lp21
sVtext
p22
Vpractice syncing
p23
sVnotes
p24
V
p25
sVuserId
p26
V3a940dd1-6d7d-4715-bc62-a12e09523455
p27
sVvalue
p28
I0
sVpriority
p29
I1
sVcompleted
p30
I00
sVchallenge
p31
(dp32
sVupdatedAt
p33
V2016-09-10T23:18:42.672Z
p34
sVreminders
p35
(lp36
sV_id
p37
Va4d96a1a-0077-493b-87db-4b47c96b923a
p38
sVtype
p39
Vtodo
p40
sVid
p41
Va4d96a1a-0077-493b-87db-4b47c96b923a
p42
sVcreatedAt
p43
V2016-09-10T23:18:42.672Z
p44
ssbg1
(ctodo_task
TodTask
p45
g3
Ntp46
Rp47
(dp48
S'_TodTask__task_dict'
p49
(dp50
Vis_archived
p51
I0
sVlabels
p52
(lp53
sVsync_id
p54
NsVin_history
p55
I0
sVdate_added
p56
VSat 13 Aug 2016 22:33:56 +0000
p57
sVid
p58
I103831340
sVcontent
p59
Vpractice syncing
p60
sVchecked
p61
I1
sVis_deleted
p62
I0
sVpriority
p63
I4
sVparent_id
p64
NsVitem_order
p65
I1
sVproject_id
p66
I177630360
sVdate_string
p67
g25
sVday_order
p68
I1
sVassigned_by_uid
p69
I8741325
sVcollapsed
p70
I0
sVuser_id
p71
I8741325
sVdate_lang
p72
Ven
p73
sVindent
p74
I1
sVall_day
p75
I00
sVdue_date_utc
p76
NsVresponsible_uid
p77
Nssbsg1
(g2
g3
Ntp78
Rp79
(dp80
g7
(lp81
sg9
(lp82
sg11
(dp83
Vattribute
p84
Vstr
p85
sVgroup
p86
(dp87
VassignedUsers
p88
(lp89
ssVcollapseChecklist
p90
I00
sVtags
p91
(lp92
sVtext
p93
Vaffirm
p94
sVnotes
p95
g25
sVuserId
p96
V3a940dd1-6d7d-4715-bc62-a12e09523455
p97
sVvalue
p98
I0
sVpriority
p99
I1
sVcompleted
p100
I00
sVchallenge
p101
(dp102
sVupdatedAt
p103
V2016-09-10T23:18:41.237Z
p104
sVreminders
p105
(lp106
sV_id
p107
Vb5085a85-92ea-43df-8830-9f5465b93c34
p108
sVtype
p109
Vtodo
p110
sVid
p111
Vb5085a85-92ea-43df-8830-9f5465b93c34
p112
sVcreatedAt
p113
V2016-09-10T23:18:41.237Z
p114
ssbg1
(g45
g3
Ntp115
Rp116
(dp117
g49
(dp118
Vis_archived
p119
I0
sVlabels
p120
(lp121
sVsync_id
p122
NsVin_history
p123
I0
sVdate_added
p124
VSat 10 Sep 2016 22:42:08 +0000
p125
sVid
p126
I106447386
sVcontent
p127
Vaffirm
p128
sVchecked
p129
I1
sVis_deleted
p130
I0
sVpriority
p131
I1
sVparent_id
p132
NsVitem_order
p133
I10
sVproject_id
p134
I177630360
sVdate_string
p135
g25
sVday_order
p136
I-1
sVassigned_by_uid
p137
I8741325
sVcollapsed
p138
I0
sVuser_id
p139
I8741325
sVdate_lang
p140
Ven
p141
sVindent
p142
I1
sVall_day
p143
I00
sVdue_date_utc
p144
NsVresponsible_uid
p145
Nssbsg1
(g2
g3
Ntp146
Rp147
(dp148
g7
(lp149
sg9
(lp150
sg11
(dp151
Vattribute
p152
Vstr
p153
sVgroup
p154
(dp155
VassignedUsers
p156
(lp157
ssVcollapseChecklist
p158
I00
sVtags
p159
(lp160
sVtext
p161
VHEY I AM NEW TODOIST SUCK IT
p162
sVnotes
p163
g25
sVuserId
p164
V3a940dd1-6d7d-4715-bc62-a12e09523455
p165
sVvalue
p166
F-3.079244230667636
sVpriority
p167
I1
sVcompleted
p168
I00
sVchallenge
p169
(dp170
sVupdatedAt
p171
V2016-09-10T09:08:00.535Z
p172
sVreminders
p173
(lp174
sV_id
p175
V2574eb6e-7d81-46d9-898a-5689cd977fa4
p176
sVtype
p177
Vtodo
p178
sVid
p179
V2574eb6e-7d81-46d9-898a-5689cd977fa4
p180
sVcreatedAt
p181
V2016-09-07T21:31:05.100Z
p182
ssbg1
(g45
g3
Ntp183
Rp184
(dp185
g49
(dp186
Vis_archived
p187
I0
sVlabels
p188
(lp189
sVsync_id
p190
NsVin_history
p191
I0
sVdate_added
p192
VSat 10 Sep 2016 22:42:08 +0000
p193
sVid
p194
I106447390
sVcontent
p195
VHEY I AM NEW TODOIST SUCK IT
p196
sVchecked
p197
I1
sVis_deleted
p198
I0
sVpriority
p199
I1
sVparent_id
p200
NsVitem_order
p201
I14
sVproject_id
p202
I177630360
sVdate_string
p203
g25
sVday_order
p204
I-1
sVassigned_by_uid
p205
I8741325
sVcollapsed
p206
I0
sVuser_id
p207
I8741325
sVdate_lang
p208
Ven
p209
sVindent
p210
I1
sVall_day
p211
I00
sVdue_date_utc
p212
NsVresponsible_uid
p213
Nssbsg1
(g2
g3
Ntp214
Rp215
(dp216
g7
(lp217
sg9
(lp218
sg11
(dp219
Vattribute
p220
Vstr
p221
sVgroup
p222
(dp223
VassignedUsers
p224
(lp225
ssVcollapseChecklist
p226
I00
sVtags
p227
(lp228
sVtext
p229
VHABTASK
p230
sVnotes
p231
g25
sVuserId
p232
V3a940dd1-6d7d-4715-bc62-a12e09523455
p233
sVvalue
p234
F-3.079244230667636
sVpriority
p235
I1
sVcompleted
p236
I00
sVchallenge
p237
(dp238
sVupdatedAt
p239
V2016-09-10T09:08:00.535Z
p240
sVreminders
p241
(lp242
sV_id
p243
Ve80ae4c5-0db6-47c6-9f38-329c78761431
p244
sVtype
p245
Vtodo
p246
sVid
p247
Ve80ae4c5-0db6-47c6-9f38-329c78761431
p248
sVcreatedAt
p249
V2016-09-07T22:30:29.786Z
p250
ssbg1
(g45
g3
Ntp251
Rp252
(dp253
g49
(dp254
Vis_archived
p255
I0
sVlabels
p256
(lp257
sVsync_id
p258
NsVin_history
p259
I0
sVdate_added
p260
VSat 10 Sep 2016 22:42:08 +0000
p261
sVid
p262
I106447389
sVcontent
p263
VHABTASK
p264
sVchecked
p265
I1
sVis_deleted
p266
I0
sVpriority
p267
I1
sVparent_id
p268
NsVitem_order
p269
I13
sVproject_id
p270
I177630360
sVdate_string
p271
g25
sVday_order
p272
I-1
sVassigned_by_uid
p273
I8741325
sVcollapsed
p274
I0
sVuser_id
p275
I8741325
sVdate_lang
p276
Ven
p277
sVindent
p278
I1
sVall_day
p279
I00
sVdue_date_utc
p280
NsVresponsible_uid
p281
Nssbsg1
(g2
g3
Ntp282
Rp283
(dp284
g7
(lp285
sg9
(lp286
sg11
(dp287
Vattribute
p288
Vstr
p289
sVgroup
p290
(dp291
VassignedUsers
p292
(lp293
ssVcollapseChecklist
p294
I00
sVtags
p295
(lp296
sVtext
p297
Vwaffle
p298
sVnotes
p299
g25
sVuserId
p300
V3a940dd1-6d7d-4715-bc62-a12e09523455
p301
sVvalue
p302
I0
sVpriority
p303
I1
sVcompleted
p304
I00
sVchallenge
p305
(dp306
sVupdatedAt
p307
V2016-09-10T23:18:40.160Z
p308
sVreminders
p309
(lp310
sV_id
p311
V191a3f30-c19b-479a-90d7-f018abea9520
p312
sVtype
p313
Vtodo
p314
sVid
p315
V191a3f30-c19b-479a-90d7-f018abea9520
p316
sVcreatedAt
p317
V2016-09-10T23:18:40.160Z
p318
ssbg1
(g45
g3
Ntp319
Rp320
(dp321
g49
(dp322
Vis_archived
p323
I0
sVlabels
p324
(lp325
sVsync_id
p326
NsVin_history
p327
I0
sVdate_added
p328
VSat 13 Aug 2016 22:33:56 +0000
p329
sVid
p330
I103831341
sVcontent
p331
Vwaffle
p332
sVchecked
p333
I1
sVis_deleted
p334
I0
sVpriority
p335
I1
sVparent_id
p336
NsVitem_order
p337
I5
sVproject_id
p338
I177630360
sVdate_string
p339
g25
sVday_order
p340
I3
sVassigned_by_uid
p341
I8741325
sVcollapsed
p342
I0
sVuser_id
p343
I8741325
sVdate_lang
p344
Ven
p345
sVindent
p346
I1
sVall_day
p347
I00
sVdue_date_utc
p348
NsVresponsible_uid
p349
Nssbs.